target datalayout = "e-m:e-p270:32:32-p271:32:32-p272:64:64-i64:64-i128:128-f80:128-n8:16:32:64-S128"
target triple = "x86_64-pc-linux-gnu"

@_ZN8LightGBM9SparseBinIhEC1Ei = weak_odr unnamed_addr alias void (ptr, i32), ptr @_ZN8LightGBM9SparseBinIhEC2Ei
@_ZN8LightGBM9SparseBinItEC1Ei = weak_odr unnamed_addr alias void (ptr, i32), ptr @_ZN8LightGBM9SparseBinItEC2Ei
@_ZN8LightGBM9SparseBinIjEC1Ei = weak_odr unnamed_addr alias void (ptr, i32), ptr @_ZN8LightGBM9SparseBinIjEC2Ei

; Function Attrs: mustprogress uwtable
define noundef ptr @_ZN8LightGBM3Bin15CreateSparseBinEii(i32 noundef %0, i32 noundef %1) #1 align 2 personality ptr @__gxx_personality_v0 {
  %3 = alloca ptr, align 8
  %4 = alloca i32, align 4
  %5 = alloca i32, align 4
  %6 = alloca ptr, align 8
  %7 = alloca i32, align 4
  store i32 %0, ptr %4, align 4, !tbaa !11
  store i32 %1, ptr %5, align 4, !tbaa !11
  %8 = load i32, ptr %5, align 4, !tbaa !11
  %9 = icmp sle i32 %8, 256
  br i1 %9, label %10, label %18

10:                                               ; preds = %2
  %11 = call noalias noundef nonnull ptr @_Znwm(i64 noundef 128) #29
  %12 = load i32, ptr %4, align 4, !tbaa !11
  invoke void @_ZN8LightGBM9SparseBinIhEC1Ei(ptr noundef nonnull align 8 dereferenceable(124) %11, i32 noundef %12)
          to label %13 unwind label %14

13:                                               ; preds = %10
  store ptr %11, ptr %3, align 8
  br label %37

14:                                               ; preds = %10
  %15 = landingpad { ptr, i32 }
          cleanup
  %16 = extractvalue { ptr, i32 } %15, 0
  store ptr %16, ptr %6, align 8
  %17 = extractvalue { ptr, i32 } %15, 1
  store i32 %17, ptr %7, align 4
  call void @_ZdlPv(ptr noundef %11) #28
  br label %39

18:                                               ; preds = %2
  %19 = load i32, ptr %5, align 4, !tbaa !11
  %20 = icmp sle i32 %19, 65536
  br i1 %20, label %21, label %29

21:                                               ; preds = %18
  %22 = call noalias noundef nonnull ptr @_Znwm(i64 noundef 128) #29
  %23 = load i32, ptr %4, align 4, !tbaa !11
  invoke void @_ZN8LightGBM9SparseBinItEC1Ei(ptr noundef nonnull align 8 dereferenceable(124) %22, i32 noundef %23)
          to label %24 unwind label %25

24:                                               ; preds = %21
  store ptr %22, ptr %3, align 8
  br label %37

25:                                               ; preds = %21
  %26 = landingpad { ptr, i32 }
          cleanup
  %27 = extractvalue { ptr, i32 } %26, 0
  store ptr %27, ptr %6, align 8
  %28 = extractvalue { ptr, i32 } %26, 1
  store i32 %28, ptr %7, align 4
  call void @_ZdlPv(ptr noundef %22) #28
  br label %39

29:                                               ; preds = %18
  %30 = call noalias noundef nonnull ptr @_Znwm(i64 noundef 128) #29
  %31 = load i32, ptr %4, align 4, !tbaa !11
  invoke void @_ZN8LightGBM9SparseBinIjEC1Ei(ptr noundef nonnull align 8 dereferenceable(124) %30, i32 noundef %31)
          to label %32 unwind label %33

32:                                               ; preds = %29
  store ptr %30, ptr %3, align 8
  br label %37

33:                                               ; preds = %29
  %34 = landingpad { ptr, i32 }
          cleanup
  %35 = extractvalue { ptr, i32 } %34, 0
  store ptr %35, ptr %6, align 8
  %36 = extractvalue { ptr, i32 } %34, 1
  store i32 %36, ptr %7, align 4
  call void @_ZdlPv(ptr noundef %30) #28
  br label %39

37:                                               ; preds = %32, %24, %13
  %38 = load ptr, ptr %3, align 8
  ret ptr %38

39:                                               ; preds = %33, %25, %14
  %40 = load ptr, ptr %6, align 8
  %41 = load i32, ptr %7, align 4
  %42 = insertvalue { ptr, i32 } poison, ptr %40, 0
  %43 = insertvalue { ptr, i32 } %42, i32 %41, 1
  resume { ptr, i32 } %43
}