; Function Attrs: mustprogress uwtable
define noundef nonnull ptr @_ZN8LightGBM3Bin15CreateSparseBinEii(i32 noundef %0, i32 noundef %1) local_unnamed_addr #1 align 2 personality ptr @__gxx_personality_v0 {
  %3 = icmp slt i32 %1, 257
  br i1 %3, label %4, label %8

4:                                                ; preds = %2
  %5 = tail call noalias noundef nonnull dereferenceable(128) ptr @_Znwm(i64 noundef 128) #38
  invoke void @_ZN8LightGBM9SparseBinIhEC1Ei(ptr noundef nonnull align 8 dereferenceable(124) %5, i32 noundef %0)
          to label %17 unwind label %6

6:                                                ; preds = %4
  %7 = landingpad { ptr, i32 }
          cleanup
  br label %18

8:                                                ; preds = %2
  %9 = icmp samesign ult i32 %1, 65537
  %10 = tail call noalias noundef nonnull dereferenceable(128) ptr @_Znwm(i64 noundef 128) #38
  br i1 %9, label %11, label %14

11:                                               ; preds = %8
  invoke void @_ZN8LightGBM9SparseBinItEC1Ei(ptr noundef nonnull align 8 dereferenceable(124) %10, i32 noundef %0)
          to label %17 unwind label %12

12:                                               ; preds = %11
  %13 = landingpad { ptr, i32 }
          cleanup
  br label %18

14:                                               ; preds = %8
  invoke void @_ZN8LightGBM9SparseBinIjEC1Ei(ptr noundef nonnull align 8 dereferenceable(124) %10, i32 noundef %0)
          to label %17 unwind label %15

15:                                               ; preds = %14
  %16 = landingpad { ptr, i32 }
          cleanup
  br label %18

17:                                               ; preds = %14, %11, %4
  %.08 = phi ptr [ %5, %4 ], [ %10, %11 ], [ %10, %14 ]
  ret ptr %.08

18:                                               ; preds = %15, %12, %6
  %.sink = phi ptr [ %10, %15 ], [ %10, %12 ], [ %5, %6 ]
  %.pn = phi { ptr, i32 } [ %16, %15 ], [ %13, %12 ], [ %7, %6 ]
  tail call void @_ZdlPv(ptr noundef nonnull %.sink) #37
  resume { ptr, i32 } %.pn
}